target datalayout = "e-m:e-p270:32:32-p271:32:32-p272:64:64-i64:64-i128:128-f80:128-n8:16:32:64-S128"
target triple = "x86_64-pc-linux-gnu"

%struct.ZSTD_customMem = type { ptr, ptr, ptr }
%struct.ZSTD_DCtx_s = type { ptr, ptr, ptr, ptr, %struct.ZSTD_entropyDTables_t, [640 x i32], ptr, ptr, ptr, ptr, i64, %struct.ZSTD_FrameHeader, i64, i64, i32, i32, i32, i32, %struct.XXH64_state_s, i64, i32, i32, i32, ptr, %struct.ZSTD_customMem, i64, i64, i64, i32, i32, ptr, ptr, i32, i32, i32, ptr, i32, i32, i32, i32, ptr, i64, i64, i64, ptr, i64, i64, i64, i64, ptr, i32, i32, i32, i32, i32, %struct.ZSTD_outBuffer_s, ptr, ptr, i32, [65568 x i8], [18 x i8], i64, i64 }
%struct.ZSTD_entropyDTables_t = type { [513 x %struct.ZSTD_seqSymbol], [257 x %struct.ZSTD_seqSymbol], [513 x %struct.ZSTD_seqSymbol], [4097 x i32], [3 x i32], [157 x i32] }
%struct.ZSTD_seqSymbol = type { i16, i8, i8, i32 }
%struct.ZSTD_FrameHeader = type { i64, i64, i32, i32, i32, i32, i32, i32, i32 }
%struct.XXH64_state_s = type { i64, [4 x i64], [4 x i64], i32, i32, i64 }
%struct.ZSTD_outBuffer_s = type { ptr, i64, i64 }
%struct.ZSTD_DDictHashSet = type { ptr, i64, i64 }

; Function Attrs: nounwind uwtable
define internal i64 @ZSTD_DDictHashSet_getIndex(ptr noundef %0, i32 noundef %1) #0 {
  %3 = alloca ptr, align 8
  %4 = alloca i32, align 4
  %5 = alloca i64, align 8
  store ptr %0, ptr %3, align 8, !tbaa !23
  store i32 %1, ptr %4, align 4, !tbaa !43
  call void @llvm.lifetime.start.p0(i64 8, ptr %5) #11
  %6 = call i64 @ZSTD_XXH64(ptr noundef captures(none) %4, i64 noundef 4, i64 noundef 0) #12
  store i64 %6, ptr %5, align 8, !tbaa !24
  %7 = load i64, ptr %5, align 8, !tbaa !24
  %8 = load ptr, ptr %3, align 8, !tbaa !23
  %9 = getelementptr inbounds nuw %struct.ZSTD_DDictHashSet, ptr %8, i32 0, i32 1
  %10 = load i64, ptr %9, align 8, !tbaa !117
  %11 = sub i64 %10, 1
  %12 = and i64 %7, %11
  call void @llvm.lifetime.end.p0(i64 8, ptr %5) #11
  ret i64 %12
}

; Function Attrs: nounwind uwtable
define internal void @ZSTD_clearDict(ptr noundef %0) #0 {
  %2 = alloca ptr, align 8
  store ptr %0, ptr %2, align 8, !tbaa !3
  %3 = load ptr, ptr %2, align 8, !tbaa !3
  %4 = getelementptr inbounds nuw %struct.ZSTD_DCtx_s, ptr %3, i32 0, i32 30
  %5 = load ptr, ptr %4, align 8, !tbaa !8
  %6 = call i64 @ZSTD_freeDDict(ptr noundef %5)
  %7 = load ptr, ptr %2, align 8, !tbaa !3
  %8 = getelementptr inbounds nuw %struct.ZSTD_DCtx_s, ptr %7, i32 0, i32 30
  store ptr null, ptr %8, align 8, !tbaa !8
  %9 = load ptr, ptr %2, align 8, !tbaa !3
  %10 = getelementptr inbounds nuw %struct.ZSTD_DCtx_s, ptr %9, i32 0, i32 31
  store ptr null, ptr %10, align 8, !tbaa !27
  %11 = load ptr, ptr %2, align 8, !tbaa !3
  %12 = getelementptr inbounds nuw %struct.ZSTD_DCtx_s, ptr %11, i32 0, i32 34
  store i32 0, ptr %12, align 8, !tbaa !30
  ret void
}

; Function Attrs: nounwind uwtable
define internal ptr @ZSTD_DDictHashSet_getDDict(ptr noundef %0, i32 noundef %1) #0 {
  %3 = alloca ptr, align 8
  %4 = alloca i32, align 4
  %5 = alloca i64, align 8
  %6 = alloca i64, align 8
  %7 = alloca i64, align 8
  %8 = alloca i32, align 4
  store ptr %0, ptr %3, align 8, !tbaa !23
  store i32 %1, ptr %4, align 4, !tbaa !43
  call void @llvm.lifetime.start.p0(i64 8, ptr %5) #11
  %9 = load ptr, ptr %3, align 8, !tbaa !23
  %10 = load i32, ptr %4, align 4, !tbaa !43
  %11 = call i64 @ZSTD_DDictHashSet_getIndex(ptr noundef %9, i32 noundef %10)
  store i64 %11, ptr %5, align 8, !tbaa !24
  call void @llvm.lifetime.start.p0(i64 8, ptr %6) #11
  %12 = load ptr, ptr %3, align 8, !tbaa !23
  %13 = getelementptr inbounds nuw %struct.ZSTD_DDictHashSet, ptr %12, i32 0, i32 1
  %14 = load i64, ptr %13, align 8, !tbaa !117
  %15 = sub i64 %14, 1
  store i64 %15, ptr %6, align 8, !tbaa !24
  br label %16

16:                                               ; preds = %2
  br label %17

17:                                               ; preds = %16
  br label %18

18:                                               ; preds = %17
  br label %19

19:                                               ; preds = %45, %18
  call void @llvm.lifetime.start.p0(i64 8, ptr %7) #11
  %20 = load ptr, ptr %3, align 8, !tbaa !23
  %21 = getelementptr inbounds nuw %struct.ZSTD_DDictHashSet, ptr %20, i32 0, i32 0
  %22 = load ptr, ptr %21, align 8, !tbaa !44
  %23 = load i64, ptr %5, align 8, !tbaa !24
  %24 = getelementptr inbounds nuw ptr, ptr %22, i64 %23
  %25 = load ptr, ptr %24, align 8, !tbaa !76
  %26 = call i32 @ZSTD_getDictID_fromDDict(ptr noundef %25)
  %27 = zext i32 %26 to i64
  store i64 %27, ptr %7, align 8, !tbaa !24
  %28 = load i64, ptr %7, align 8, !tbaa !24
  %29 = load i32, ptr %4, align 4, !tbaa !43
  %30 = zext i32 %29 to i64
  %31 = icmp eq i64 %28, %30
  br i1 %31, label %35, label %32

32:                                               ; preds = %19
  %33 = load i64, ptr %7, align 8, !tbaa !24
  %34 = icmp eq i64 %33, 0
  br i1 %34, label %35, label %36

35:                                               ; preds = %32, %19
  store i32 4, ptr %8, align 4
  br label %43

36:                                               ; preds = %32
  %37 = load i64, ptr %6, align 8, !tbaa !24
  %38 = load i64, ptr %5, align 8, !tbaa !24
  %39 = and i64 %38, %37
  store i64 %39, ptr %5, align 8, !tbaa !24
  %40 = load i64, ptr %5, align 8, !tbaa !24
  %41 = add i64 %40, 1
  store i64 %41, ptr %5, align 8, !tbaa !24
  br label %42

42:                                               ; preds = %36
  store i32 0, ptr %8, align 4
  br label %43

43:                                               ; preds = %42, %35
  call void @llvm.lifetime.end.p0(i64 8, ptr %7) #11
  %44 = load i32, ptr %8, align 4
  switch i32 %44, label %56 [
    i32 0, label %45
    i32 4, label %46
  ]

45:                                               ; preds = %43
  br label %19

46:                                               ; preds = %43
  br label %47

47:                                               ; preds = %46
  br label %48

48:                                               ; preds = %47
  br label %49

49:                                               ; preds = %48
  %50 = load ptr, ptr %3, align 8, !tbaa !23
  %51 = getelementptr inbounds nuw %struct.ZSTD_DDictHashSet, ptr %50, i32 0, i32 0
  %52 = load ptr, ptr %51, align 8, !tbaa !44
  %53 = load i64, ptr %5, align 8, !tbaa !24
  %54 = getelementptr inbounds nuw ptr, ptr %52, i64 %53
  %55 = load ptr, ptr %54, align 8, !tbaa !76
  store i32 1, ptr %8, align 4
  call void @llvm.lifetime.end.p0(i64 8, ptr %6) #11
  call void @llvm.lifetime.end.p0(i64 8, ptr %5) #11
  ret ptr %55

56:                                               ; preds = %43
  unreachable
}

; Function Attrs: nounwind uwtable
define internal void @ZSTD_DCtx_selectFrameDDict(ptr noundef %0) #0 {
  %2 = alloca ptr, align 8
  %3 = alloca ptr, align 8
  store ptr %0, ptr %2, align 8, !tbaa !3
  br label %4

4:                                                ; preds = %1
  br label %5

5:                                                ; preds = %4
  %6 = load ptr, ptr %2, align 8, !tbaa !3
  %7 = getelementptr inbounds nuw %struct.ZSTD_DCtx_s, ptr %6, i32 0, i32 31
  %8 = load ptr, ptr %7, align 8, !tbaa !27
  %9 = icmp ne ptr %8, null
  br i1 %9, label %10, label %38

10:                                               ; preds = %5
  call void @llvm.lifetime.start.p0(i64 8, ptr %3) #11
  %11 = load ptr, ptr %2, align 8, !tbaa !3
  %12 = getelementptr inbounds nuw %struct.ZSTD_DCtx_s, ptr %11, i32 0, i32 35
  %13 = load ptr, ptr %12, align 8, !tbaa !38
  %14 = load ptr, ptr %2, align 8, !tbaa !3
  %15 = getelementptr inbounds nuw %struct.ZSTD_DCtx_s, ptr %14, i32 0, i32 11
  %16 = getelementptr inbounds nuw %struct.ZSTD_FrameHeader, ptr %15, i32 0, i32 5
  %17 = load i32, ptr %16, align 4, !tbaa !93
  %18 = call ptr @ZSTD_DDictHashSet_getDDict(ptr noundef %13, i32 noundef %17)
  store ptr %18, ptr %3, align 8, !tbaa !76
  %19 = load ptr, ptr %3, align 8, !tbaa !76
  %20 = icmp ne ptr %19, null
  br i1 %20, label %21, label %37

21:                                               ; preds = %10
  br label %22

22:                                               ; preds = %21
  br label %23

23:                                               ; preds = %22
  br label %24

24:                                               ; preds = %23
  %25 = load ptr, ptr %2, align 8, !tbaa !3
  call void @ZSTD_clearDict(ptr noundef %25)
  %26 = load ptr, ptr %2, align 8, !tbaa !3
  %27 = getelementptr inbounds nuw %struct.ZSTD_DCtx_s, ptr %26, i32 0, i32 11
  %28 = getelementptr inbounds nuw %struct.ZSTD_FrameHeader, ptr %27, i32 0, i32 5
  %29 = load i32, ptr %28, align 4, !tbaa !93
  %30 = load ptr, ptr %2, align 8, !tbaa !3
  %31 = getelementptr inbounds nuw %struct.ZSTD_DCtx_s, ptr %30, i32 0, i32 32
  store i32 %29, ptr %31, align 8, !tbaa !94
  %32 = load ptr, ptr %3, align 8, !tbaa !76
  %33 = load ptr, ptr %2, align 8, !tbaa !3
  %34 = getelementptr inbounds nuw %struct.ZSTD_DCtx_s, ptr %33, i32 0, i32 31
  store ptr %32, ptr %34, align 8, !tbaa !27
  %35 = load ptr, ptr %2, align 8, !tbaa !3
  %36 = getelementptr inbounds nuw %struct.ZSTD_DCtx_s, ptr %35, i32 0, i32 34
  store i32 -1, ptr %36, align 8, !tbaa !30
  br label %37

37:                                               ; preds = %24, %10
  call void @llvm.lifetime.end.p0(i64 8, ptr %3) #11
  br label %38

38:                                               ; preds = %37, %5
  ret void
}

; Function Attrs: nounwind uwtable
define internal i32 @ERR_isError(i64 noundef %0) #0 {
  %2 = alloca i64, align 8
  store i64 %0, ptr %2, align 8, !tbaa !24
  %3 = load i64, ptr %2, align 8, !tbaa !24
  %4 = icmp ugt i64 %3, -120
  %5 = zext i1 %4 to i32
  ret i32 %5
}

; Function Attrs: nounwind uwtable
define internal i64 @ZSTD_decodeFrameHeader(ptr noundef %0, ptr noundef %1, i64 noundef %2) #0 {
  %4 = alloca i64, align 8
  %5 = alloca ptr, align 8
  %6 = alloca ptr, align 8
  %7 = alloca i64, align 8
  %8 = alloca i64, align 8
  %9 = alloca i32, align 4
  store ptr %0, ptr %5, align 8, !tbaa !3
  store ptr %1, ptr %6, align 8, !tbaa !23
  store i64 %2, ptr %7, align 8, !tbaa !24
  call void @llvm.lifetime.start.p0(i64 8, ptr %8) #11
  %10 = load ptr, ptr %5, align 8, !tbaa !3
  %11 = getelementptr inbounds nuw %struct.ZSTD_DCtx_s, ptr %10, i32 0, i32 11
  %12 = load ptr, ptr %6, align 8, !tbaa !23
  %13 = load i64, ptr %7, align 8, !tbaa !24
  %14 = load ptr, ptr %5, align 8, !tbaa !3
  %15 = getelementptr inbounds nuw %struct.ZSTD_DCtx_s, ptr %14, i32 0, i32 20
  %16 = load i32, ptr %15, align 8, !tbaa !77
  %17 = call i64 @ZSTD_getFrameHeader_advanced(ptr noundef %11, ptr noundef %12, i64 noundef %13, i32 noundef %16)
  store i64 %17, ptr %8, align 8, !tbaa !24
  %18 = load i64, ptr %8, align 8, !tbaa !24
  %19 = call i32 @ERR_isError(i64 noundef %18)
  %20 = icmp ne i32 %19, 0
  br i1 %20, label %21, label %23

21:                                               ; preds = %3
  %22 = load i64, ptr %8, align 8, !tbaa !24
  store i64 %22, ptr %4, align 8
  store i32 1, ptr %9, align 4
  br label %116

23:                                               ; preds = %3
  br label %24

24:                                               ; preds = %23
  %25 = load i64, ptr %8, align 8, !tbaa !24
  %26 = icmp ugt i64 %25, 0
  br i1 %26, label %27, label %40

27:                                               ; preds = %24
  br label %28

28:                                               ; preds = %27
  br label %29

29:                                               ; preds = %28
  br label %30

30:                                               ; preds = %29
  br label %31

31:                                               ; preds = %30
  br label %32

32:                                               ; preds = %31
  br label %33

33:                                               ; preds = %32
  br label %34

34:                                               ; preds = %33
  br label %35

35:                                               ; preds = %34
  br label %36

36:                                               ; preds = %35
  br label %37

37:                                               ; preds = %36
  br label %38

38:                                               ; preds = %37
  br label %39

39:                                               ; preds = %38
  store i64 -72, ptr %4, align 8
  store i32 1, ptr %9, align 4
  br label %116

40:                                               ; preds = %24
  br label %41

41:                                               ; preds = %40
  br label %42

42:                                               ; preds = %41
  %43 = load ptr, ptr %5, align 8, !tbaa !3
  %44 = getelementptr inbounds nuw %struct.ZSTD_DCtx_s, ptr %43, i32 0, i32 36
  %45 = load i32, ptr %44, align 8, !tbaa !92
  %46 = icmp eq i32 %45, 1
  br i1 %46, label %47, label %54

47:                                               ; preds = %42
  %48 = load ptr, ptr %5, align 8, !tbaa !3
  %49 = getelementptr inbounds nuw %struct.ZSTD_DCtx_s, ptr %48, i32 0, i32 35
  %50 = load ptr, ptr %49, align 8, !tbaa !38
  %51 = icmp ne ptr %50, null
  br i1 %51, label %52, label %54

52:                                               ; preds = %47
  %53 = load ptr, ptr %5, align 8, !tbaa !3
  call void @ZSTD_DCtx_selectFrameDDict(ptr noundef %53)
  br label %54

54:                                               ; preds = %52, %47, %42
  br label %55

55:                                               ; preds = %54
  %56 = load ptr, ptr %5, align 8, !tbaa !3
  %57 = getelementptr inbounds nuw %struct.ZSTD_DCtx_s, ptr %56, i32 0, i32 11
  %58 = getelementptr inbounds nuw %struct.ZSTD_FrameHeader, ptr %57, i32 0, i32 5
  %59 = load i32, ptr %58, align 4, !tbaa !93
  %60 = icmp ne i32 %59, 0
  br i1 %60, label %61, label %83

61:                                               ; preds = %55
  %62 = load ptr, ptr %5, align 8, !tbaa !3
  %63 = getelementptr inbounds nuw %struct.ZSTD_DCtx_s, ptr %62, i32 0, i32 32
  %64 = load i32, ptr %63, align 8, !tbaa !94
  %65 = load ptr, ptr %5, align 8, !tbaa !3
  %66 = getelementptr inbounds nuw %struct.ZSTD_DCtx_s, ptr %65, i32 0, i32 11
  %67 = getelementptr inbounds nuw %struct.ZSTD_FrameHeader, ptr %66, i32 0, i32 5
  %68 = load i32, ptr %67, align 4, !tbaa !93
  %69 = icmp ne i32 %64, %68
  br i1 %69, label %70, label %83

70:                                               ; preds = %61
  br label %71

71:                                               ; preds = %70
  br label %72

72:                                               ; preds = %71
  br label %73

73:                                               ; preds = %72
  br label %74

74:                                               ; preds = %73
  br label %75

75:                                               ; preds = %74
  br label %76

76:                                               ; preds = %75
  br label %77

77:                                               ; preds = %76
  br label %78

78:                                               ; preds = %77
  br label %79

79:                                               ; preds = %78
  br label %80

80:                                               ; preds = %79
  br label %81

81:                                               ; preds = %80
  br label %82

82:                                               ; preds = %81
  store i64 -32, ptr %4, align 8
  store i32 1, ptr %9, align 4
  br label %116

83:                                               ; preds = %61, %55
  br label %84

84:                                               ; preds = %83
  br label %85

85:                                               ; preds = %84
  %86 = load ptr, ptr %5, align 8, !tbaa !3
  %87 = getelementptr inbounds nuw %struct.ZSTD_DCtx_s, ptr %86, i32 0, i32 11
  %88 = getelementptr inbounds nuw %struct.ZSTD_FrameHeader, ptr %87, i32 0, i32 6
  %89 = load i32, ptr %88, align 8, !tbaa !88
  %90 = icmp ne i32 %89, 0
  br i1 %90, label %91, label %97

91:                                               ; preds = %85
  %92 = load ptr, ptr %5, align 8, !tbaa !3
  %93 = getelementptr inbounds nuw %struct.ZSTD_DCtx_s, ptr %92, i32 0, i32 21
  %94 = load i32, ptr %93, align 4, !tbaa !95
  %95 = icmp ne i32 %94, 0
  %96 = xor i1 %95, true
  br label %97

97:                                               ; preds = %91, %85
  %98 = phi i1 [ false, %85 ], [ %96, %91 ]
  %99 = select i1 %98, i32 1, i32 0
  %100 = load ptr, ptr %5, align 8, !tbaa !3
  %101 = getelementptr inbounds nuw %struct.ZSTD_DCtx_s, ptr %100, i32 0, i32 22
  store i32 %99, ptr %101, align 8, !tbaa !90
  %102 = load ptr, ptr %5, align 8, !tbaa !3
  %103 = getelementptr inbounds nuw %struct.ZSTD_DCtx_s, ptr %102, i32 0, i32 22
  %104 = load i32, ptr %103, align 8, !tbaa !90
  %105 = icmp ne i32 %104, 0
  br i1 %105, label %106, label %110

106:                                              ; preds = %97
  %107 = load ptr, ptr %5, align 8, !tbaa !3
  %108 = getelementptr inbounds nuw %struct.ZSTD_DCtx_s, ptr %107, i32 0, i32 18
  %109 = call i32 @ZSTD_XXH64_reset(ptr noundef captures(none) %108, i64 noundef 0)
  br label %110

110:                                              ; preds = %106, %97
  %111 = load i64, ptr %7, align 8, !tbaa !24
  %112 = load ptr, ptr %5, align 8, !tbaa !3
  %113 = getelementptr inbounds nuw %struct.ZSTD_DCtx_s, ptr %112, i32 0, i32 12
  %114 = load i64, ptr %113, align 8, !tbaa !81
  %115 = add i64 %114, %111
  store i64 %115, ptr %113, align 8, !tbaa !81
  store i64 0, ptr %4, align 8
  store i32 1, ptr %9, align 4
  br label %116

116:                                              ; preds = %110, %82, %39, %21
  call void @llvm.lifetime.end.p0(i64 8, ptr %8) #11
  %117 = load i64, ptr %4, align 8
  ret i64 %117
}