; Function Attrs: nounwind uwtable
define internal fastcc range(i64 -119, 1) i64 @ZSTD_decodeFrameHeader(ptr noundef captures(none) %0, ptr noundef captures(address_is_null) %1, i64 noundef %2) unnamed_addr #0 {
  %4 = alloca i32, align 4
  %5 = getelementptr inbounds nuw i8, ptr %0, i64 29928
  %6 = getelementptr inbounds nuw i8, ptr %0, i64 30104
  %7 = load i32, ptr %6, align 8, !tbaa !34
  %8 = tail call i64 @ZSTD_getFrameHeader_advanced(ptr noundef nonnull %5, ptr noundef %1, i64 noundef %2, i32 noundef %7)
  %9 = icmp ult i64 %8, -119
  br i1 %9, label %10, label %68

10:                                               ; preds = %3
  %.not21 = icmp eq i64 %8, 0
  br i1 %.not21, label %11, label %68

11:                                               ; preds = %10
  %12 = getelementptr inbounds nuw i8, ptr %0, i64 30224
  %13 = load i32, ptr %12, align 8, !tbaa !38
  %14 = icmp eq i32 %13, 1
  br i1 %14, label %15, label %ZSTD_DCtx_selectFrameDDict.exit

15:                                               ; preds = %11
  %16 = getelementptr inbounds nuw i8, ptr %0, i64 30216
  %17 = load ptr, ptr %16, align 8, !tbaa !33
  %.not22 = icmp eq ptr %17, null
  br i1 %.not22, label %ZSTD_DCtx_selectFrameDDict.exit, label %18

18:                                               ; preds = %15
  %19 = getelementptr inbounds nuw i8, ptr %0, i64 30192
  %20 = load ptr, ptr %19, align 8, !tbaa !109
  %.not.i = icmp eq ptr %20, null
  br i1 %.not.i, label %ZSTD_DCtx_selectFrameDDict.exit, label %21

21:                                               ; preds = %18
  %22 = getelementptr inbounds nuw i8, ptr %0, i64 29956
  %23 = load i32, ptr %22, align 4, !tbaa !121
  %24 = getelementptr i8, ptr %17, i64 8
  %.val.i.i = load i64, ptr %24, align 8, !tbaa !122
  call void @llvm.lifetime.start.p0(i64 4, ptr nonnull %4)
  store i32 %23, ptr %4, align 4, !tbaa !47
  %25 = call i64 @ZSTD_XXH64(ptr noundef nonnull captures(none) %4, i64 noundef 4, i64 noundef 0) #20
  %26 = add i64 %.val.i.i, -1
  %27 = and i64 %25, %26
  call void @llvm.lifetime.end.p0(i64 4, ptr nonnull %4)
  br label %28

28:                                               ; preds = %28, %21
  %.014.i.i = phi i64 [ %27, %21 ], [ %36, %28 ]
  %29 = load ptr, ptr %17, align 8, !tbaa !44
  %30 = getelementptr inbounds nuw ptr, ptr %29, i64 %.014.i.i
  %31 = load ptr, ptr %30, align 8, !tbaa !123
  %32 = tail call i32 @ZSTD_getDictID_fromDDict(ptr noundef %31) #17
  %33 = icmp eq i32 %32, %23
  %34 = icmp eq i32 %32, 0
  %or.cond.i.i = or i1 %33, %34
  %35 = and i64 %.014.i.i, %26
  %36 = add i64 %35, 1
  br i1 %or.cond.i.i, label %ZSTD_DDictHashSet_getDDict.exit.i, label %28

ZSTD_DDictHashSet_getDDict.exit.i:                ; preds = %28
  %37 = load ptr, ptr %17, align 8, !tbaa !44
  %38 = getelementptr inbounds nuw ptr, ptr %37, i64 %.014.i.i
  %39 = load ptr, ptr %38, align 8, !tbaa !123
  %.not10.i = icmp eq ptr %39, null
  br i1 %.not10.i, label %ZSTD_DCtx_selectFrameDDict.exit, label %40

40:                                               ; preds = %ZSTD_DDictHashSet_getDDict.exit.i
  %41 = getelementptr inbounds nuw i8, ptr %0, i64 30184
  %42 = load ptr, ptr %41, align 8, !tbaa !3
  %43 = tail call i64 @ZSTD_freeDDict(ptr noundef %42) #17
  %44 = getelementptr inbounds nuw i8, ptr %0, i64 30208
  store i64 0, ptr %41, align 8
  %45 = load i32, ptr %22, align 4, !tbaa !121
  %46 = getelementptr inbounds nuw i8, ptr %0, i64 30200
  store i32 %45, ptr %46, align 8, !tbaa !91
  store ptr %39, ptr %19, align 8, !tbaa !109
  store i32 -1, ptr %44, align 8, !tbaa !23
  br label %ZSTD_DCtx_selectFrameDDict.exit

ZSTD_DCtx_selectFrameDDict.exit:                  ; preds = %40, %ZSTD_DDictHashSet_getDDict.exit.i, %18, %11, %15
  %47 = getelementptr inbounds nuw i8, ptr %0, i64 29956
  %48 = load i32, ptr %47, align 4, !tbaa !121
  %.not23 = icmp eq i32 %48, 0
  br i1 %.not23, label %52, label %49

49:                                               ; preds = %ZSTD_DCtx_selectFrameDDict.exit
  %50 = getelementptr inbounds nuw i8, ptr %0, i64 30200
  %51 = load i32, ptr %50, align 8, !tbaa !91
  %.not24 = icmp eq i32 %51, %48
  br i1 %.not24, label %52, label %68

52:                                               ; preds = %49, %ZSTD_DCtx_selectFrameDDict.exit
  %53 = getelementptr inbounds nuw i8, ptr %0, i64 29960
  %54 = load i32, ptr %53, align 8, !tbaa !102
  %.not25 = icmp eq i32 %54, 0
  br i1 %.not25, label %.critedge, label %55

55:                                               ; preds = %52
  %56 = getelementptr inbounds nuw i8, ptr %0, i64 30108
  %57 = load i32, ptr %56, align 4, !tbaa !37
  %.not26 = icmp eq i32 %57, 0
  %58 = zext i1 %.not26 to i32
  %59 = getelementptr inbounds nuw i8, ptr %0, i64 30112
  store i32 %58, ptr %59, align 8, !tbaa !100
  br i1 %.not26, label %60, label %64

60:                                               ; preds = %55
  %61 = getelementptr inbounds nuw i8, ptr %0, i64 30008
  %62 = tail call i32 @ZSTD_XXH64_reset(ptr noundef nonnull captures(none) %61, i64 noundef 0) #17
  br label %64

.critedge:                                        ; preds = %52
  %63 = getelementptr inbounds nuw i8, ptr %0, i64 30112
  store i32 0, ptr %63, align 8, !tbaa !100
  br label %64

64:                                               ; preds = %.critedge, %60, %55
  %65 = getelementptr inbounds nuw i8, ptr %0, i64 29976
  %66 = load i64, ptr %65, align 8, !tbaa !117
  %67 = add i64 %66, %2
  store i64 %67, ptr %65, align 8, !tbaa !117
  br label %68

68:                                               ; preds = %49, %10, %3, %64
  %.0 = phi i64 [ 0, %64 ], [ %8, %3 ], [ -72, %10 ], [ -32, %49 ]
  ret i64 %.0
}